; Function Attrs: mustprogress uwtable
define hidden void @_ZN17bv2int_translator7bv_sizeEP4expr(ptr dead_on_unwind noalias writable sret(%class.rational) align 8 %0, ptr nonnull readnone align 8 captures(none) %1, ptr noundef nonnull %2) local_unnamed_addr #3 align 2 {
  %4 = tail call noundef ptr @_ZNK4expr8get_sortEv(ptr noundef nonnull align 4 dereferenceable(16) %2)
  %5 = getelementptr inbounds nuw i8, ptr %4, i64 24
  %6 = load ptr, ptr %5, align 8, !tbaa !79
  %7 = getelementptr inbounds nuw i8, ptr %6, i64 8
  %8 = load ptr, ptr %7, align 8, !tbaa !97
  %9 = getelementptr inbounds nuw i8, ptr %8, i64 8
  %10 = load i8, ptr %9, align 8, !tbaa !98
  %.not.i.i.i.i = icmp eq i8 %10, 0
  br i1 %.not.i.i.i.i, label %_ZNK7bv_util11get_bv_sizeEPK4sort.exit, label %11

11:                                               ; preds = %3
  %12 = tail call ptr @__cxa_allocate_exception(i64 16) #23
  store ptr getelementptr inbounds nuw inrange(-16, 24) (i8, ptr @_ZTVSt18bad_variant_access, i64 16), ptr %12, align 8, !tbaa !58
  %13 = getelementptr inbounds nuw i8, ptr %12, i64 8
  store ptr @.str.18, ptr %13, align 8, !tbaa !100
  tail call void @__cxa_throw(ptr nonnull %12, ptr nonnull @_ZTISt18bad_variant_access, ptr nonnull @_ZNSt9exceptionD2Ev) #26
  unreachable

_ZNK7bv_util11get_bv_sizeEPK4sort.exit:           ; preds = %3
  %14 = load i32, ptr %8, align 4, !tbaa !43
  tail call void @_ZN8rational12power_of_twoEj(ptr dead_on_unwind writable sret(%class.rational) align 8 %0, i32 noundef %14)
  ret void
}